; Function Attrs: mustprogress nounwind uwtable
define void @_ZN32pxrInternal_v0_24__pxrReserved__11HdSelectionD2Ev(ptr noundef nonnull align 8 dereferenceable(144) %0) unnamed_addr #0 align 2 personality ptr @__gxx_personality_v0 {
  store ptr getelementptr inbounds inrange(-16, 16) (i8, ptr @_ZTVN32pxrInternal_v0_24__pxrReserved__11HdSelectionE, i64 16), ptr %0, align 8
  %2 = getelementptr inbounds nuw i8, ptr %0, i64 120
  %3 = load ptr, ptr %2, align 8
  %.not.i.i.i = icmp eq ptr %3, null
  br i1 %.not.i.i.i, label %_ZNSt6vectorIN32pxrInternal_v0_24__pxrReserved__7GfVec4fESaIS1_EED2Ev.exit.preheader, label %4

4:                                                ; preds = %1
  %5 = getelementptr inbounds i8, ptr %0, i64 136
  %6 = load ptr, ptr %5, align 8
  %7 = ptrtoint ptr %6 to i64
  %8 = ptrtoint ptr %3 to i64
  %9 = sub i64 %7, %8
  tail call void @_ZdlPvm(ptr noundef nonnull %3, i64 noundef %9) #17
  br label %_ZNSt6vectorIN32pxrInternal_v0_24__pxrReserved__7GfVec4fESaIS1_EED2Ev.exit.preheader

_ZNSt6vectorIN32pxrInternal_v0_24__pxrReserved__7GfVec4fESaIS1_EED2Ev.exit.preheader: ; preds = %1, %4
  br label %_ZNSt6vectorIN32pxrInternal_v0_24__pxrReserved__7GfVec4fESaIS1_EED2Ev.exit

_ZNSt6vectorIN32pxrInternal_v0_24__pxrReserved__7GfVec4fESaIS1_EED2Ev.exit: ; preds = %_ZNSt6vectorIN32pxrInternal_v0_24__pxrReserved__7GfVec4fESaIS1_EED2Ev.exit.preheader, %_ZNSt6vectorIN32pxrInternal_v0_24__pxrReserved__7GfVec4fESaIS1_EED2Ev.exit
  %.idx = phi i64 [ %.add, %_ZNSt6vectorIN32pxrInternal_v0_24__pxrReserved__7GfVec4fESaIS1_EED2Ev.exit ], [ 120, %_ZNSt6vectorIN32pxrInternal_v0_24__pxrReserved__7GfVec4fESaIS1_EED2Ev.exit.preheader ]
  %.add = add nsw i64 %.idx, -56
  %.ptr1 = getelementptr inbounds i8, ptr %0, i64 %.add
  tail call void @_ZNSt10_HashtableIN32pxrInternal_v0_24__pxrReserved__7SdfPathESt4pairIKS1_NS0_11HdSelection18PrimSelectionStateEESaIS6_ENSt8__detail10_Select1stESt8equal_toIS1_ENS1_4HashENS8_18_Mod_range_hashingENS8_20_Default_ranged_hashENS8_20_Prime_rehash_policyENS8_17_Hashtable_traitsILb1ELb0ELb1EEEED2Ev(ptr noundef nonnull align 8 dereferenceable(56) %.ptr1) #18
  %10 = icmp eq i64 %.add, 8
  br i1 %10, label %11, label %_ZNSt6vectorIN32pxrInternal_v0_24__pxrReserved__7GfVec4fESaIS1_EED2Ev.exit

11:                                               ; preds = %_ZNSt6vectorIN32pxrInternal_v0_24__pxrReserved__7GfVec4fESaIS1_EED2Ev.exit
  ret void
}